target datalayout = "e-m:e-p270:32:32-p271:32:32-p272:64:64-i64:64-i128:128-f80:128-n8:16:32:64-S128"
target triple = "x86_64-pc-linux-gnu"

%struct.SDL_Gamepad = type { ptr, i32, ptr, i32, i32, ptr, i32, ptr, ptr, ptr, i64, ptr }
%struct.SDL_GamepadBinding = type { i32, %union.anon, i32, %union.anon.1 }
%union.anon = type { %struct.anon }
%struct.anon = type { i32, i32, i32 }
%union.anon.1 = type { %struct.anon.2 }
%struct.anon.2 = type { i32, i32, i32 }
%struct.anon.0 = type { i32, i32 }

@.str.4 = private unnamed_addr constant [26 x i8] c"Parameter '%s' is invalid\00", align 1
@.str.5 = private unnamed_addr constant [8 x i8] c"gamepad\00", align 1

; Function Attrs: nounwind uwtable
define hidden signext i16 @SDL_GetGamepadAxis_REAL(ptr noundef %0, i32 noundef %1) #0 {
  %3 = alloca i16, align 2
  %4 = alloca ptr, align 8
  %5 = alloca i32, align 4
  %6 = alloca i16, align 2
  %7 = alloca i32, align 4
  %8 = alloca i32, align 4
  %9 = alloca ptr, align 8
  %10 = alloca i32, align 4
  %11 = alloca i8, align 1
  %12 = alloca i8, align 1
  %13 = alloca float, align 4
  %14 = alloca i32, align 4
  store ptr %0, ptr %4, align 8
  store i32 %1, ptr %5, align 4
  call void @llvm.lifetime.start.p0(i64 2, ptr %6) #8
  store i16 0, ptr %6, align 2
  call void @SDL_LockJoysticks_REAL()
  call void @llvm.lifetime.start.p0(i64 4, ptr %7) #8
  %15 = load ptr, ptr %4, align 8
  %16 = call zeroext i1 @SDL_ObjectValid(ptr noundef %15, i32 noundef 5)
  br i1 %16, label %17, label %22

17:                                               ; preds = %2
  %18 = load ptr, ptr %4, align 8
  %19 = getelementptr inbounds nuw %struct.SDL_Gamepad, ptr %18, i32 0, i32 0
  %20 = load ptr, ptr %19, align 8
  %21 = call zeroext i1 @SDL_IsJoystickValid(ptr noundef %20)
  br i1 %21, label %24, label %22

22:                                               ; preds = %17, %2
  %23 = call zeroext i1 (ptr, ...) @SDL_SetError_REAL(ptr noundef @.str.4, ptr noundef @.str.5)
  call void @SDL_UnlockJoysticks_REAL()
  store i16 0, ptr %3, align 2
  store i32 1, ptr %8, align 4
  br label %284

24:                                               ; preds = %17
  store i32 0, ptr %7, align 4
  br label %25

25:                                               ; preds = %280, %24
  %26 = load i32, ptr %7, align 4
  %27 = load ptr, ptr %4, align 8
  %28 = getelementptr inbounds nuw %struct.SDL_Gamepad, ptr %27, i32 0, i32 6
  %29 = load i32, ptr %28, align 8
  %30 = icmp slt i32 %26, %29
  br i1 %30, label %31, label %283

31:                                               ; preds = %25
  call void @llvm.lifetime.start.p0(i64 8, ptr %9) #8
  %32 = load ptr, ptr %4, align 8
  %33 = getelementptr inbounds nuw %struct.SDL_Gamepad, ptr %32, i32 0, i32 7
  %34 = load ptr, ptr %33, align 8
  %35 = load i32, ptr %7, align 4
  %36 = sext i32 %35 to i64
  %37 = getelementptr inbounds %struct.SDL_GamepadBinding, ptr %34, i64 %36
  store ptr %37, ptr %9, align 8
  %38 = load ptr, ptr %9, align 8
  %39 = getelementptr inbounds nuw %struct.SDL_GamepadBinding, ptr %38, i32 0, i32 2
  %40 = load i32, ptr %39, align 4
  %41 = icmp eq i32 %40, 2
  br i1 %41, label %42, label %276

42:                                               ; preds = %31
  %43 = load ptr, ptr %9, align 8
  %44 = getelementptr inbounds nuw %struct.SDL_GamepadBinding, ptr %43, i32 0, i32 3
  %45 = getelementptr inbounds nuw %struct.anon.2, ptr %44, i32 0, i32 0
  %46 = load i32, ptr %45, align 4
  %47 = load i32, ptr %5, align 4
  %48 = icmp eq i32 %46, %47
  br i1 %48, label %49, label %276

49:                                               ; preds = %42
  call void @llvm.lifetime.start.p0(i64 4, ptr %10) #8
  store i32 0, ptr %10, align 4
  call void @llvm.lifetime.start.p0(i64 1, ptr %11) #8
  call void @llvm.lifetime.start.p0(i64 1, ptr %12) #8
  %50 = load ptr, ptr %9, align 8
  %51 = getelementptr inbounds nuw %struct.SDL_GamepadBinding, ptr %50, i32 0, i32 0
  %52 = load i32, ptr %51, align 4
  %53 = icmp eq i32 %52, 2
  br i1 %53, label %54, label %170

54:                                               ; preds = %49
  %55 = load ptr, ptr %4, align 8
  %56 = getelementptr inbounds nuw %struct.SDL_Gamepad, ptr %55, i32 0, i32 0
  %57 = load ptr, ptr %56, align 8
  %58 = load ptr, ptr %9, align 8
  %59 = getelementptr inbounds nuw %struct.SDL_GamepadBinding, ptr %58, i32 0, i32 1
  %60 = getelementptr inbounds nuw %struct.anon, ptr %59, i32 0, i32 0
  %61 = load i32, ptr %60, align 4
  %62 = call signext i16 @SDL_GetJoystickAxis_REAL(ptr noundef %57, i32 noundef %61)
  %63 = sext i16 %62 to i32
  store i32 %63, ptr %10, align 4
  %64 = load ptr, ptr %9, align 8
  %65 = getelementptr inbounds nuw %struct.SDL_GamepadBinding, ptr %64, i32 0, i32 1
  %66 = getelementptr inbounds nuw %struct.anon, ptr %65, i32 0, i32 1
  %67 = load i32, ptr %66, align 4
  %68 = load ptr, ptr %9, align 8
  %69 = getelementptr inbounds nuw %struct.SDL_GamepadBinding, ptr %68, i32 0, i32 1
  %70 = getelementptr inbounds nuw %struct.anon, ptr %69, i32 0, i32 2
  %71 = load i32, ptr %70, align 4
  %72 = icmp slt i32 %67, %71
  br i1 %72, label %73, label %90

73:                                               ; preds = %54
  %74 = load i32, ptr %10, align 4
  %75 = load ptr, ptr %9, align 8
  %76 = getelementptr inbounds nuw %struct.SDL_GamepadBinding, ptr %75, i32 0, i32 1
  %77 = getelementptr inbounds nuw %struct.anon, ptr %76, i32 0, i32 1
  %78 = load i32, ptr %77, align 4
  %79 = icmp sge i32 %74, %78
  br i1 %79, label %80, label %87

80:                                               ; preds = %73
  %81 = load i32, ptr %10, align 4
  %82 = load ptr, ptr %9, align 8
  %83 = getelementptr inbounds nuw %struct.SDL_GamepadBinding, ptr %82, i32 0, i32 1
  %84 = getelementptr inbounds nuw %struct.anon, ptr %83, i32 0, i32 2
  %85 = load i32, ptr %84, align 4
  %86 = icmp sle i32 %81, %85
  br label %87

87:                                               ; preds = %80, %73
  %88 = phi i1 [ false, %73 ], [ %86, %80 ]
  %89 = zext i1 %88 to i8
  store i8 %89, ptr %11, align 1
  br label %107

90:                                               ; preds = %54
  %91 = load i32, ptr %10, align 4
  %92 = load ptr, ptr %9, align 8
  %93 = getelementptr inbounds nuw %struct.SDL_GamepadBinding, ptr %92, i32 0, i32 1
  %94 = getelementptr inbounds nuw %struct.anon, ptr %93, i32 0, i32 2
  %95 = load i32, ptr %94, align 4
  %96 = icmp sge i32 %91, %95
  br i1 %96, label %97, label %104

97:                                               ; preds = %90
  %98 = load i32, ptr %10, align 4
  %99 = load ptr, ptr %9, align 8
  %100 = getelementptr inbounds nuw %struct.SDL_GamepadBinding, ptr %99, i32 0, i32 1
  %101 = getelementptr inbounds nuw %struct.anon, ptr %100, i32 0, i32 1
  %102 = load i32, ptr %101, align 4
  %103 = icmp sle i32 %98, %102
  br label %104

104:                                              ; preds = %97, %90
  %105 = phi i1 [ false, %90 ], [ %103, %97 ]
  %106 = zext i1 %105 to i8
  store i8 %106, ptr %11, align 1
  br label %107

107:                                              ; preds = %104, %87
  %108 = load i8, ptr %11, align 1, !range !3, !noundef !4
  %109 = trunc i8 %108 to i1
  br i1 %109, label %110, label %168

110:                                              ; preds = %107
  %111 = load ptr, ptr %9, align 8
  %112 = getelementptr inbounds nuw %struct.SDL_GamepadBinding, ptr %111, i32 0, i32 1
  %113 = getelementptr inbounds nuw %struct.anon, ptr %112, i32 0, i32 1
  %114 = load i32, ptr %113, align 4
  %115 = load ptr, ptr %9, align 8
  %116 = getelementptr inbounds nuw %struct.SDL_GamepadBinding, ptr %115, i32 0, i32 3
  %117 = getelementptr inbounds nuw %struct.anon.2, ptr %116, i32 0, i32 1
  %118 = load i32, ptr %117, align 4
  %119 = icmp ne i32 %114, %118
  br i1 %119, label %130, label %120

120:                                              ; preds = %110
  %121 = load ptr, ptr %9, align 8
  %122 = getelementptr inbounds nuw %struct.SDL_GamepadBinding, ptr %121, i32 0, i32 1
  %123 = getelementptr inbounds nuw %struct.anon, ptr %122, i32 0, i32 2
  %124 = load i32, ptr %123, align 4
  %125 = load ptr, ptr %9, align 8
  %126 = getelementptr inbounds nuw %struct.SDL_GamepadBinding, ptr %125, i32 0, i32 3
  %127 = getelementptr inbounds nuw %struct.anon.2, ptr %126, i32 0, i32 2
  %128 = load i32, ptr %127, align 4
  %129 = icmp ne i32 %124, %128
  br i1 %129, label %130, label %167

130:                                              ; preds = %120, %110
  call void @llvm.lifetime.start.p0(i64 4, ptr %13) #8
  %131 = load i32, ptr %10, align 4
  %132 = load ptr, ptr %9, align 8
  %133 = getelementptr inbounds nuw %struct.SDL_GamepadBinding, ptr %132, i32 0, i32 1
  %134 = getelementptr inbounds nuw %struct.anon, ptr %133, i32 0, i32 1
  %135 = load i32, ptr %134, align 4
  %136 = sub nsw i32 %131, %135
  %137 = sitofp i32 %136 to float
  %138 = load ptr, ptr %9, align 8
  %139 = getelementptr inbounds nuw %struct.SDL_GamepadBinding, ptr %138, i32 0, i32 1
  %140 = getelementptr inbounds nuw %struct.anon, ptr %139, i32 0, i32 2
  %141 = load i32, ptr %140, align 4
  %142 = load ptr, ptr %9, align 8
  %143 = getelementptr inbounds nuw %struct.SDL_GamepadBinding, ptr %142, i32 0, i32 1
  %144 = getelementptr inbounds nuw %struct.anon, ptr %143, i32 0, i32 1
  %145 = load i32, ptr %144, align 4
  %146 = sub nsw i32 %141, %145
  %147 = sitofp i32 %146 to float
  %148 = fdiv float %137, %147
  store float %148, ptr %13, align 4
  %149 = load ptr, ptr %9, align 8
  %150 = getelementptr inbounds nuw %struct.SDL_GamepadBinding, ptr %149, i32 0, i32 3
  %151 = getelementptr inbounds nuw %struct.anon.2, ptr %150, i32 0, i32 1
  %152 = load i32, ptr %151, align 4
  %153 = load float, ptr %13, align 4
  %154 = load ptr, ptr %9, align 8
  %155 = getelementptr inbounds nuw %struct.SDL_GamepadBinding, ptr %154, i32 0, i32 3
  %156 = getelementptr inbounds nuw %struct.anon.2, ptr %155, i32 0, i32 2
  %157 = load i32, ptr %156, align 4
  %158 = load ptr, ptr %9, align 8
  %159 = getelementptr inbounds nuw %struct.SDL_GamepadBinding, ptr %158, i32 0, i32 3
  %160 = getelementptr inbounds nuw %struct.anon.2, ptr %159, i32 0, i32 1
  %161 = load i32, ptr %160, align 4
  %162 = sub nsw i32 %157, %161
  %163 = sitofp i32 %162 to float
  %164 = fmul float %153, %163
  %165 = fptosi float %164 to i32
  %166 = add nsw i32 %152, %165
  store i32 %166, ptr %10, align 4
  call void @llvm.lifetime.end.p0(i64 4, ptr %13) #8
  br label %167

167:                                              ; preds = %130, %120
  br label %169

168:                                              ; preds = %107
  store i32 0, ptr %10, align 4
  br label %169

169:                                              ; preds = %168, %167
  br label %219

170:                                              ; preds = %49
  %171 = load ptr, ptr %9, align 8
  %172 = getelementptr inbounds nuw %struct.SDL_GamepadBinding, ptr %171, i32 0, i32 0
  %173 = load i32, ptr %172, align 4
  %174 = icmp eq i32 %173, 1
  br i1 %174, label %175, label %189

175:                                              ; preds = %170
  %176 = load ptr, ptr %4, align 8
  %177 = getelementptr inbounds nuw %struct.SDL_Gamepad, ptr %176, i32 0, i32 0
  %178 = load ptr, ptr %177, align 8
  %179 = load ptr, ptr %9, align 8
  %180 = getelementptr inbounds nuw %struct.SDL_GamepadBinding, ptr %179, i32 0, i32 1
  %181 = load i32, ptr %180, align 4
  %182 = call zeroext i1 @SDL_GetJoystickButton_REAL(ptr noundef %178, i32 noundef %181)
  br i1 %182, label %183, label %188

183:                                              ; preds = %175
  %184 = load ptr, ptr %9, align 8
  %185 = getelementptr inbounds nuw %struct.SDL_GamepadBinding, ptr %184, i32 0, i32 3
  %186 = getelementptr inbounds nuw %struct.anon.2, ptr %185, i32 0, i32 2
  %187 = load i32, ptr %186, align 4
  store i32 %187, ptr %10, align 4
  br label %188

188:                                              ; preds = %183, %175
  br label %218

189:                                              ; preds = %170
  %190 = load ptr, ptr %9, align 8
  %191 = getelementptr inbounds nuw %struct.SDL_GamepadBinding, ptr %190, i32 0, i32 0
  %192 = load i32, ptr %191, align 4
  %193 = icmp eq i32 %192, 3
  br i1 %193, label %194, label %217

194:                                              ; preds = %189
  call void @llvm.lifetime.start.p0(i64 4, ptr %14) #8
  %195 = load ptr, ptr %4, align 8
  %196 = getelementptr inbounds nuw %struct.SDL_Gamepad, ptr %195, i32 0, i32 0
  %197 = load ptr, ptr %196, align 8
  %198 = load ptr, ptr %9, align 8
  %199 = getelementptr inbounds nuw %struct.SDL_GamepadBinding, ptr %198, i32 0, i32 1
  %200 = getelementptr inbounds nuw %struct.anon.0, ptr %199, i32 0, i32 0
  %201 = load i32, ptr %200, align 4
  %202 = call zeroext i8 @SDL_GetJoystickHat_REAL(ptr noundef %197, i32 noundef %201)
  %203 = zext i8 %202 to i32
  store i32 %203, ptr %14, align 4
  %204 = load i32, ptr %14, align 4
  %205 = load ptr, ptr %9, align 8
  %206 = getelementptr inbounds nuw %struct.SDL_GamepadBinding, ptr %205, i32 0, i32 1
  %207 = getelementptr inbounds nuw %struct.anon.0, ptr %206, i32 0, i32 1
  %208 = load i32, ptr %207, align 4
  %209 = and i32 %204, %208
  %210 = icmp ne i32 %209, 0
  br i1 %210, label %211, label %216

211:                                              ; preds = %194
  %212 = load ptr, ptr %9, align 8
  %213 = getelementptr inbounds nuw %struct.SDL_GamepadBinding, ptr %212, i32 0, i32 3
  %214 = getelementptr inbounds nuw %struct.anon.2, ptr %213, i32 0, i32 2
  %215 = load i32, ptr %214, align 4
  store i32 %215, ptr %10, align 4
  br label %216

216:                                              ; preds = %211, %194
  call void @llvm.lifetime.end.p0(i64 4, ptr %14) #8
  br label %217

217:                                              ; preds = %216, %189
  br label %218

218:                                              ; preds = %217, %188
  br label %219

219:                                              ; preds = %218, %169
  %220 = load ptr, ptr %9, align 8
  %221 = getelementptr inbounds nuw %struct.SDL_GamepadBinding, ptr %220, i32 0, i32 3
  %222 = getelementptr inbounds nuw %struct.anon.2, ptr %221, i32 0, i32 1
  %223 = load i32, ptr %222, align 4
  %224 = load ptr, ptr %9, align 8
  %225 = getelementptr inbounds nuw %struct.SDL_GamepadBinding, ptr %224, i32 0, i32 3
  %226 = getelementptr inbounds nuw %struct.anon.2, ptr %225, i32 0, i32 2
  %227 = load i32, ptr %226, align 4
  %228 = icmp slt i32 %223, %227
  br i1 %228, label %229, label %246

229:                                              ; preds = %219
  %230 = load i32, ptr %10, align 4
  %231 = load ptr, ptr %9, align 8
  %232 = getelementptr inbounds nuw %struct.SDL_GamepadBinding, ptr %231, i32 0, i32 3
  %233 = getelementptr inbounds nuw %struct.anon.2, ptr %232, i32 0, i32 1
  %234 = load i32, ptr %233, align 4
  %235 = icmp sge i32 %230, %234
  br i1 %235, label %236, label %243

236:                                              ; preds = %229
  %237 = load i32, ptr %10, align 4
  %238 = load ptr, ptr %9, align 8
  %239 = getelementptr inbounds nuw %struct.SDL_GamepadBinding, ptr %238, i32 0, i32 3
  %240 = getelementptr inbounds nuw %struct.anon.2, ptr %239, i32 0, i32 2
  %241 = load i32, ptr %240, align 4
  %242 = icmp sle i32 %237, %241
  br label %243

243:                                              ; preds = %236, %229
  %244 = phi i1 [ false, %229 ], [ %242, %236 ]
  %245 = zext i1 %244 to i8
  store i8 %245, ptr %12, align 1
  br label %263

246:                                              ; preds = %219
  %247 = load i32, ptr %10, align 4
  %248 = load ptr, ptr %9, align 8
  %249 = getelementptr inbounds nuw %struct.SDL_GamepadBinding, ptr %248, i32 0, i32 3
  %250 = getelementptr inbounds nuw %struct.anon.2, ptr %249, i32 0, i32 2
  %251 = load i32, ptr %250, align 4
  %252 = icmp sge i32 %247, %251
  br i1 %252, label %253, label %260

253:                                              ; preds = %246
  %254 = load i32, ptr %10, align 4
  %255 = load ptr, ptr %9, align 8
  %256 = getelementptr inbounds nuw %struct.SDL_GamepadBinding, ptr %255, i32 0, i32 3
  %257 = getelementptr inbounds nuw %struct.anon.2, ptr %256, i32 0, i32 1
  %258 = load i32, ptr %257, align 4
  %259 = icmp sle i32 %254, %258
  br label %260

260:                                              ; preds = %253, %246
  %261 = phi i1 [ false, %246 ], [ %259, %253 ]
  %262 = zext i1 %261 to i8
  store i8 %262, ptr %12, align 1
  br label %263

263:                                              ; preds = %260, %243
  %264 = load i32, ptr %10, align 4
  %265 = icmp ne i32 %264, 0
  br i1 %265, label %266, label %272

266:                                              ; preds = %263
  %267 = load i8, ptr %12, align 1, !range !3, !noundef !4
  %268 = trunc i8 %267 to i1
  br i1 %268, label %269, label %272

269:                                              ; preds = %266
  %270 = load i32, ptr %10, align 4
  %271 = trunc i32 %270 to i16
  store i16 %271, ptr %6, align 2
  store i32 2, ptr %8, align 4
  br label %273

272:                                              ; preds = %266, %263
  store i32 0, ptr %8, align 4
  br label %273

273:                                              ; preds = %272, %269
  call void @llvm.lifetime.end.p0(i64 1, ptr %12) #8
  call void @llvm.lifetime.end.p0(i64 1, ptr %11) #8
  call void @llvm.lifetime.end.p0(i64 4, ptr %10) #8
  %274 = load i32, ptr %8, align 4
  switch i32 %274, label %277 [
    i32 0, label %275
  ]

275:                                              ; preds = %273
  br label %276

276:                                              ; preds = %275, %42, %31
  store i32 0, ptr %8, align 4
  br label %277

277:                                              ; preds = %276, %273
  call void @llvm.lifetime.end.p0(i64 8, ptr %9) #8
  %278 = load i32, ptr %8, align 4
  switch i32 %278, label %290 [
    i32 0, label %279
    i32 2, label %283
  ]

279:                                              ; preds = %277
  br label %280

280:                                              ; preds = %279
  %281 = load i32, ptr %7, align 4
  %282 = add nsw i32 %281, 1
  store i32 %282, ptr %7, align 4
  br label %25, !llvm.loop !38

283:                                              ; preds = %277, %25
  store i32 0, ptr %8, align 4
  br label %284

284:                                              ; preds = %283, %22
  call void @llvm.lifetime.end.p0(i64 4, ptr %7) #8
  %285 = load i32, ptr %8, align 4
  switch i32 %285, label %288 [
    i32 0, label %286
  ]

286:                                              ; preds = %284
  call void @SDL_UnlockJoysticks_REAL()
  %287 = load i16, ptr %6, align 2
  store i16 %287, ptr %3, align 2
  store i32 1, ptr %8, align 4
  br label %288

288:                                              ; preds = %286, %284
  call void @llvm.lifetime.end.p0(i64 2, ptr %6) #8
  %289 = load i16, ptr %3, align 2
  ret i16 %289

290:                                              ; preds = %277
  unreachable
}