; Function Attrs: nounwind uwtable
define hidden signext i16 @SDL_GetGamepadAxis_REAL(ptr noundef %0, i32 noundef %1) local_unnamed_addr #0 {
  tail call void @SDL_LockJoysticks_REAL() #10
  %3 = tail call zeroext i1 @SDL_ObjectValid(ptr noundef %0, i32 noundef 5) #10
  br i1 %3, label %4, label %89

4:                                                ; preds = %2
  %5 = load ptr, ptr %0, align 8
  %6 = tail call zeroext i1 @SDL_IsJoystickValid(ptr noundef %5) #10
  br i1 %6, label %.preheader, label %89

.preheader:                                       ; preds = %4
  %7 = getelementptr inbounds nuw i8, ptr %0, i64 40
  %8 = load i32, ptr %7, align 8
  %9 = icmp sgt i32 %8, 0
  br i1 %9, label %.lr.ph, label %.split.loop.exit104

.lr.ph:                                           ; preds = %.preheader
  %10 = getelementptr inbounds nuw i8, ptr %0, i64 48
  br label %11

11:                                               ; preds = %.lr.ph, %.thread
  %12 = phi i32 [ %8, %.lr.ph ], [ %86, %.thread ]
  %indvars.iv = phi i64 [ 0, %.lr.ph ], [ %indvars.iv.next, %.thread ]
  %13 = load ptr, ptr %10, align 8
  %14 = getelementptr inbounds nuw %struct.SDL_GamepadBinding, ptr %13, i64 %indvars.iv
  %15 = getelementptr inbounds nuw i8, ptr %14, i64 16
  %16 = load i32, ptr %15, align 4
  %17 = icmp eq i32 %16, 2
  br i1 %17, label %18, label %.thread

18:                                               ; preds = %11
  %19 = getelementptr inbounds nuw i8, ptr %14, i64 20
  %20 = load i32, ptr %19, align 4
  %21 = icmp eq i32 %20, %1
  br i1 %21, label %22, label %.thread

22:                                               ; preds = %18
  %23 = load i32, ptr %14, align 4
  switch i32 %23, label %74 [
    i32 2, label %24
    i32 1, label %54
    i32 3, label %62
  ]

24:                                               ; preds = %22
  %25 = load ptr, ptr %0, align 8
  %26 = getelementptr inbounds nuw i8, ptr %14, i64 4
  %27 = load i32, ptr %26, align 4
  %28 = tail call signext i16 @SDL_GetJoystickAxis_REAL(ptr noundef %25, i32 noundef %27) #10
  %29 = sext i16 %28 to i32
  %30 = getelementptr inbounds nuw i8, ptr %14, i64 8
  %31 = load i32, ptr %30, align 4
  %32 = getelementptr inbounds nuw i8, ptr %14, i64 12
  %33 = load i32, ptr %32, align 4
  %34 = icmp slt i32 %31, %33
  br i1 %34, label %35, label %37

35:                                               ; preds = %24
  %.not86 = icmp sle i32 %31, %29
  %36 = icmp sge i32 %33, %29
  %spec.select = and i1 %.not86, %36
  br i1 %spec.select, label %39, label %74

37:                                               ; preds = %24
  %.not85 = icmp sle i32 %33, %29
  %38 = icmp sge i32 %31, %29
  %spec.select91 = and i1 %38, %.not85
  br i1 %spec.select91, label %39, label %74

39:                                               ; preds = %35, %37
  %40 = getelementptr inbounds nuw i8, ptr %14, i64 24
  %41 = load i32, ptr %40, align 4
  %.not87 = icmp eq i32 %31, %41
  %42 = getelementptr inbounds nuw i8, ptr %14, i64 28
  %43 = load i32, ptr %42, align 4
  %.not88 = icmp eq i32 %33, %43
  %or.cond109 = select i1 %.not87, i1 %.not88, i1 false
  br i1 %or.cond109, label %74, label %._crit_edge

._crit_edge:                                      ; preds = %39
  %44 = sub nsw i32 %29, %31
  %45 = sitofp i32 %44 to float
  %46 = sub nsw i32 %33, %31
  %47 = sitofp i32 %46 to float
  %48 = fdiv float %45, %47
  %49 = sub nsw i32 %43, %41
  %50 = sitofp i32 %49 to float
  %51 = fmul float %48, %50
  %52 = fptosi float %51 to i32
  %53 = add nsw i32 %41, %52
  br label %74

54:                                               ; preds = %22
  %55 = load ptr, ptr %0, align 8
  %56 = getelementptr inbounds nuw i8, ptr %14, i64 4
  %57 = load i32, ptr %56, align 4
  %58 = tail call zeroext i1 @SDL_GetJoystickButton_REAL(ptr noundef %55, i32 noundef %57) #10
  br i1 %58, label %59, label %74

59:                                               ; preds = %54
  %60 = getelementptr inbounds nuw i8, ptr %14, i64 28
  %61 = load i32, ptr %60, align 4
  br label %74

62:                                               ; preds = %22
  %63 = load ptr, ptr %0, align 8
  %64 = getelementptr inbounds nuw i8, ptr %14, i64 4
  %65 = load i32, ptr %64, align 4
  %66 = tail call zeroext i8 @SDL_GetJoystickHat_REAL(ptr noundef %63, i32 noundef %65) #10
  %67 = zext i8 %66 to i32
  %68 = getelementptr inbounds nuw i8, ptr %14, i64 8
  %69 = load i32, ptr %68, align 4
  %70 = and i32 %69, %67
  %.not = icmp eq i32 %70, 0
  br i1 %.not, label %74, label %71

71:                                               ; preds = %62
  %72 = getelementptr inbounds nuw i8, ptr %14, i64 28
  %73 = load i32, ptr %72, align 4
  br label %74

74:                                               ; preds = %39, %35, %62, %71, %22, %37, %59, %54, %._crit_edge
  %.069 = phi i32 [ %53, %._crit_edge ], [ %61, %59 ], [ 0, %54 ], [ 0, %37 ], [ 0, %22 ], [ %73, %71 ], [ 0, %62 ], [ 0, %35 ], [ %29, %39 ]
  %75 = getelementptr inbounds nuw i8, ptr %14, i64 24
  %76 = load i32, ptr %75, align 4
  %77 = getelementptr inbounds nuw i8, ptr %14, i64 28
  %78 = load i32, ptr %77, align 4
  %79 = icmp slt i32 %76, %78
  br i1 %79, label %80, label %82

80:                                               ; preds = %74
  %.not90 = icmp sge i32 %.069, %76
  %81 = icmp sle i32 %.069, %78
  %spec.select92 = and i1 %.not90, %81
  br label %84

82:                                               ; preds = %74
  %.not89 = icmp sge i32 %.069, %78
  %83 = icmp sle i32 %.069, %76
  %spec.select93 = and i1 %83, %.not89
  br label %84

84:                                               ; preds = %82, %80
  %.067 = phi i1 [ %spec.select92, %80 ], [ %spec.select93, %82 ]
  %85 = icmp ne i32 %.069, 0
  %or.cond = select i1 %85, i1 %.067, i1 false
  br i1 %or.cond, label %.split.loop.exit, label %..thread_crit_edge

..thread_crit_edge:                               ; preds = %84
  %.pre108 = load i32, ptr %7, align 8
  br label %.thread

.thread:                                          ; preds = %..thread_crit_edge, %11, %18
  %86 = phi i32 [ %.pre108, %..thread_crit_edge ], [ %12, %11 ], [ %12, %18 ]
  %indvars.iv.next = add nuw nsw i64 %indvars.iv, 1
  %87 = sext i32 %86 to i64
  %88 = icmp slt i64 %indvars.iv.next, %87
  br i1 %88, label %11, label %.split.loop.exit104, !llvm.loop !48

89:                                               ; preds = %2, %4
  %90 = tail call zeroext i1 (ptr, ...) @SDL_SetError_REAL(ptr noundef nonnull @.str.4, ptr noundef nonnull @.str.5) #10
  br label %.split.loop.exit104

.split.loop.exit:                                 ; preds = %84
  %91 = trunc i32 %.069 to i16
  br label %.split.loop.exit104

.split.loop.exit104:                              ; preds = %.thread, %.split.loop.exit, %.preheader, %89
  %.1 = phi i16 [ 0, %89 ], [ %91, %.split.loop.exit ], [ 0, %.preheader ], [ 0, %.thread ]
  tail call void @SDL_UnlockJoysticks_REAL() #10
  ret i16 %.1
}